target datalayout = "e-m:e-p270:32:32-p271:32:32-p272:64:64-i64:64-i128:128-f80:128-n8:16:32:64-S128"
target triple = "x86_64-pc-linux-gnu"

%struct.qemu_plugin_u64 = type { ptr, i64 }
%union._GMutex = type { ptr }
%struct.InsnClassExecCount = type { ptr, ptr, i32, i32, i32, %struct.qemu_plugin_u64 }
%struct.InsnExecCount = type { ptr, i32, %struct.qemu_plugin_u64, ptr }

@class_table = internal global ptr null, align 8
@class_table_sz = internal global i32 0, align 4
@do_inline = internal global i8 0, align 1
@insns = internal global ptr null, align 8
@.str.117 = private unnamed_addr constant [33 x i8] c"../qemu/contrib/plugins/howvec.c\00", align 1
@__func__.find_counter = private unnamed_addr constant [13 x i8] c"find_counter\00", align 1
@.str.118 = private unnamed_addr constant [6 x i8] c"class\00", align 1
@lock = internal global %union._GMutex zeroinitializer, align 8

; Function Attrs: nounwind sspstrong uwtable
define internal ptr @find_counter(ptr noundef %0) #0 {
  %2 = alloca ptr, align 8
  %3 = alloca ptr, align 8
  %4 = alloca i32, align 4
  %5 = alloca ptr, align 8
  %6 = alloca i32, align 4
  %7 = alloca ptr, align 8
  %8 = alloca i32, align 4
  %9 = alloca i32, align 4
  %10 = alloca i32, align 4
  %11 = alloca i32, align 4
  %12 = alloca ptr, align 8
  %13 = alloca i64, align 8
  %14 = alloca i64, align 8
  %15 = alloca ptr, align 8
  %16 = alloca ptr, align 8
  %17 = alloca ptr, align 8
  %18 = alloca %struct.qemu_plugin_u64, align 8
  store ptr %0, ptr %3, align 8
  call void @llvm.lifetime.start.p0(i64 4, ptr %4) #13
  store i32 0, ptr %4, align 4, !annotation !3
  call void @llvm.lifetime.start.p0(i64 8, ptr %5) #13
  store ptr null, ptr %5, align 8
  call void @llvm.lifetime.start.p0(i64 4, ptr %6) #13
  store i32 0, ptr %6, align 4
  call void @llvm.lifetime.start.p0(i64 8, ptr %7) #13
  store ptr null, ptr %7, align 8
  %19 = load ptr, ptr %3, align 8
  %20 = call i64 @qemu_plugin_insn_data(ptr noundef %19, ptr noundef %6, i64 noundef 4)
  store i32 0, ptr %4, align 4
  br label %21

21:                                               ; preds = %50, %1
  %22 = load ptr, ptr %5, align 8
  %23 = icmp ne ptr %22, null
  br i1 %23, label %28, label %24

24:                                               ; preds = %21
  %25 = load i32, ptr %4, align 4
  %26 = load i32, ptr @class_table_sz, align 4
  %27 = icmp slt i32 %25, %26
  br label %28

28:                                               ; preds = %24, %21
  %29 = phi i1 [ false, %21 ], [ %27, %24 ]
  br i1 %29, label %30, label %53

30:                                               ; preds = %28
  %31 = load ptr, ptr @class_table, align 8
  %32 = load i32, ptr %4, align 4
  %33 = sext i32 %32 to i64
  %34 = getelementptr inbounds %struct.InsnClassExecCount, ptr %31, i64 %33
  store ptr %34, ptr %7, align 8
  call void @llvm.lifetime.start.p0(i64 4, ptr %8) #13
  %35 = load i32, ptr %6, align 4
  %36 = load ptr, ptr %7, align 8
  %37 = getelementptr inbounds nuw %struct.InsnClassExecCount, ptr %36, i32 0, i32 2
  %38 = load i32, ptr %37, align 8
  %39 = and i32 %35, %38
  store i32 %39, ptr %8, align 4
  %40 = load i32, ptr %8, align 4
  %41 = load ptr, ptr %7, align 8
  %42 = getelementptr inbounds nuw %struct.InsnClassExecCount, ptr %41, i32 0, i32 3
  %43 = load i32, ptr %42, align 4
  %44 = icmp eq i32 %40, %43
  br i1 %44, label %45, label %46

45:                                               ; preds = %30
  store i32 2, ptr %9, align 4
  br label %47

46:                                               ; preds = %30
  store i32 0, ptr %9, align 4
  br label %47

47:                                               ; preds = %46, %45
  call void @llvm.lifetime.end.p0(i64 4, ptr %8) #13
  %48 = load i32, ptr %9, align 4
  switch i32 %48, label %151 [
    i32 0, label %49
    i32 2, label %53
  ]

49:                                               ; preds = %47
  br label %50

50:                                               ; preds = %49
  %51 = load i32, ptr %4, align 4
  %52 = add i32 %51, 1
  store i32 %52, ptr %4, align 4
  br label %21, !llvm.loop !17

53:                                               ; preds = %47, %28
  br label %54

54:                                               ; preds = %53
  call void @llvm.lifetime.start.p0(i64 4, ptr %10) #13
  store i32 0, ptr %10, align 4, !annotation !3
  %55 = load ptr, ptr %7, align 8
  %56 = icmp ne ptr %55, null
  br i1 %56, label %57, label %58

57:                                               ; preds = %54
  store i32 1, ptr %10, align 4
  br label %59

58:                                               ; preds = %54
  store i32 0, ptr %10, align 4
  br label %59

59:                                               ; preds = %58, %57
  %60 = load i32, ptr %10, align 4
  store i32 %60, ptr %11, align 4
  call void @llvm.lifetime.end.p0(i64 4, ptr %10) #13
  %61 = load i32, ptr %11, align 4
  %62 = sext i32 %61 to i64
  %63 = call i64 @llvm.expect.i64(i64 %62, i64 1)
  %64 = icmp ne i64 %63, 0
  br i1 %64, label %65, label %66

65:                                               ; preds = %59
  br label %67

66:                                               ; preds = %59
  call void @g_assertion_message_expr(ptr noundef null, ptr noundef @.str.117, i32 noundef 276, ptr noundef @__func__.find_counter, ptr noundef @.str.118) #15
  unreachable

67:                                               ; preds = %65
  br label %68

68:                                               ; preds = %67
  br label %69

69:                                               ; preds = %68
  %70 = load ptr, ptr %7, align 8
  %71 = getelementptr inbounds nuw %struct.InsnClassExecCount, ptr %70, i32 0, i32 4
  %72 = load i32, ptr %71, align 8
  switch i32 %72, label %144 [
    i32 2, label %73
    i32 0, label %74
    i32 1, label %79
  ]

73:                                               ; preds = %69
  store ptr null, ptr %2, align 8
  store i32 1, ptr %9, align 4
  br label %149

74:                                               ; preds = %69
  %75 = load ptr, ptr %7, align 8
  %76 = getelementptr inbounds nuw %struct.InsnClassExecCount, ptr %75, i32 0, i32 5
  %77 = getelementptr inbounds nuw %struct.qemu_plugin_u64, ptr %76, i32 0, i32 0
  %78 = load ptr, ptr %77, align 8
  store ptr %78, ptr %2, align 8
  store i32 1, ptr %9, align 4
  br label %149

79:                                               ; preds = %69
  call void @llvm.lifetime.start.p0(i64 8, ptr %12) #13
  store ptr null, ptr %12, align 8, !annotation !3
  call void @g_mutex_lock(ptr noundef @lock)
  %80 = load ptr, ptr @insns, align 8
  %81 = load i32, ptr %6, align 4
  %82 = zext i32 %81 to i64
  %83 = inttoptr i64 %82 to ptr
  %84 = call ptr @g_hash_table_lookup(ptr noundef %80, ptr noundef %83)
  store ptr %84, ptr %12, align 8
  %85 = load ptr, ptr %12, align 8
  %86 = icmp ne ptr %85, null
  br i1 %86, label %139, label %87

87:                                               ; preds = %79
  call void @llvm.lifetime.start.p0(i64 8, ptr %13) #13
  store i64 1, ptr %13, align 8
  call void @llvm.lifetime.start.p0(i64 8, ptr %14) #13
  store i64 40, ptr %14, align 8
  call void @llvm.lifetime.start.p0(i64 8, ptr %15) #13
  store ptr null, ptr %15, align 8, !annotation !3
  %88 = load i64, ptr %14, align 8
  %89 = icmp eq i64 %88, 1
  br i1 %89, label %90, label %93

90:                                               ; preds = %87
  %91 = load i64, ptr %13, align 8
  %92 = call noalias ptr @g_malloc0(i64 noundef %91) #16
  store ptr %92, ptr %15, align 8
  br label %114

93:                                               ; preds = %87
  %94 = load i64, ptr %13, align 8
  %95 = call i1 @llvm.is.constant.i64(i64 %94)
  br i1 %95, label %96, label %109

96:                                               ; preds = %93
  %97 = load i64, ptr %14, align 8
  %98 = icmp eq i64 %97, 0
  br i1 %98, label %104, label %99

99:                                               ; preds = %96
  %100 = load i64, ptr %13, align 8
  %101 = load i64, ptr %14, align 8
  %102 = udiv i64 -1, %101
  %103 = icmp ule i64 %100, %102
  br i1 %103, label %104, label %109

104:                                              ; preds = %99, %96
  %105 = load i64, ptr %13, align 8
  %106 = load i64, ptr %14, align 8
  %107 = mul i64 %105, %106
  %108 = call noalias ptr @g_malloc0(i64 noundef %107) #16
  store ptr %108, ptr %15, align 8
  br label %113

109:                                              ; preds = %99, %93
  %110 = load i64, ptr %13, align 8
  %111 = load i64, ptr %14, align 8
  %112 = call noalias ptr @g_malloc0_n(i64 noundef %110, i64 noundef %111) #17
  store ptr %112, ptr %15, align 8
  br label %113

113:                                              ; preds = %109, %104
  br label %114

114:                                              ; preds = %113, %90
  %115 = load ptr, ptr %15, align 8
  store ptr %115, ptr %16, align 8
  call void @llvm.lifetime.end.p0(i64 8, ptr %15) #13
  call void @llvm.lifetime.end.p0(i64 8, ptr %14) #13
  call void @llvm.lifetime.end.p0(i64 8, ptr %13) #13
  %116 = load ptr, ptr %16, align 8
  store ptr %116, ptr %12, align 8
  %117 = load i32, ptr %6, align 4
  %118 = load ptr, ptr %12, align 8
  %119 = getelementptr inbounds nuw %struct.InsnExecCount, ptr %118, i32 0, i32 1
  store i32 %117, ptr %119, align 8
  %120 = load ptr, ptr %3, align 8
  %121 = call ptr @qemu_plugin_insn_disas(ptr noundef %120)
  %122 = load ptr, ptr %12, align 8
  %123 = getelementptr inbounds nuw %struct.InsnExecCount, ptr %122, i32 0, i32 0
  store ptr %121, ptr %123, align 8
  %124 = load ptr, ptr %7, align 8
  %125 = load ptr, ptr %12, align 8
  %126 = getelementptr inbounds nuw %struct.InsnExecCount, ptr %125, i32 0, i32 3
  store ptr %124, ptr %126, align 8
  call void @llvm.lifetime.start.p0(i64 8, ptr %17) #13
  %127 = call ptr @qemu_plugin_scoreboard_new(i64 noundef 8)
  store ptr %127, ptr %17, align 8
  %128 = load ptr, ptr %12, align 8
  %129 = getelementptr inbounds nuw %struct.InsnExecCount, ptr %128, i32 0, i32 2
  %130 = getelementptr inbounds nuw %struct.qemu_plugin_u64, ptr %18, i32 0, i32 0
  %131 = load ptr, ptr %17, align 8
  store ptr %131, ptr %130, align 8
  %132 = getelementptr inbounds nuw %struct.qemu_plugin_u64, ptr %18, i32 0, i32 1
  store i64 0, ptr %132, align 8
  call void @llvm.memcpy.p0.p0.i64(ptr align 8 %129, ptr align 8 %18, i64 16, i1 false)
  %133 = load ptr, ptr @insns, align 8
  %134 = load i32, ptr %6, align 4
  %135 = zext i32 %134 to i64
  %136 = inttoptr i64 %135 to ptr
  %137 = load ptr, ptr %12, align 8
  %138 = call i32 @g_hash_table_insert(ptr noundef %133, ptr noundef %136, ptr noundef %137)
  call void @llvm.lifetime.end.p0(i64 8, ptr %17) #13
  br label %139

139:                                              ; preds = %114, %79
  call void @g_mutex_unlock(ptr noundef @lock)
  %140 = load ptr, ptr %12, align 8
  %141 = getelementptr inbounds nuw %struct.InsnExecCount, ptr %140, i32 0, i32 2
  %142 = getelementptr inbounds nuw %struct.qemu_plugin_u64, ptr %141, i32 0, i32 0
  %143 = load ptr, ptr %142, align 8
  store ptr %143, ptr %2, align 8
  store i32 1, ptr %9, align 4
  call void @llvm.lifetime.end.p0(i64 8, ptr %12) #13
  br label %149

144:                                              ; preds = %69
  br label %145

145:                                              ; preds = %144
  call void @g_assertion_message_expr(ptr noundef null, ptr noundef @.str.117, i32 noundef 307, ptr noundef @__func__.find_counter, ptr noundef null) #15
  unreachable

146:                                              ; No predecessors!
  br label %147

147:                                              ; preds = %146
  br label %148

148:                                              ; preds = %147
  store ptr null, ptr %2, align 8
  store i32 1, ptr %9, align 4
  br label %149

149:                                              ; preds = %148, %139, %74, %73
  call void @llvm.lifetime.end.p0(i64 8, ptr %7) #13
  call void @llvm.lifetime.end.p0(i64 4, ptr %6) #13
  call void @llvm.lifetime.end.p0(i64 8, ptr %5) #13
  call void @llvm.lifetime.end.p0(i64 4, ptr %4) #13
  %150 = load ptr, ptr %2, align 8
  ret ptr %150

151:                                              ; preds = %47
  unreachable
}

; Function Attrs: nounwind sspstrong uwtable
define internal void @vcpu_tb_trans(i64 noundef %0, ptr noundef %1) #0 {
  %3 = alloca i64, align 8
  %4 = alloca ptr, align 8
  %5 = alloca i64, align 8
  %6 = alloca i64, align 8
  %7 = alloca ptr, align 8
  %8 = alloca ptr, align 8
  %9 = alloca %struct.qemu_plugin_u64, align 8
  store i64 %0, ptr %3, align 8
  store ptr %1, ptr %4, align 8
  call void @llvm.lifetime.start.p0(i64 8, ptr %5) #13
  %10 = load ptr, ptr %4, align 8
  %11 = call i64 @qemu_plugin_tb_n_insns(ptr noundef %10)
  store i64 %11, ptr %5, align 8
  call void @llvm.lifetime.start.p0(i64 8, ptr %6) #13
  store i64 0, ptr %6, align 8, !annotation !3
  store i64 0, ptr %6, align 8
  br label %12

12:                                               ; preds = %41, %2
  %13 = load i64, ptr %6, align 8
  %14 = load i64, ptr %5, align 8
  %15 = icmp ult i64 %13, %14
  br i1 %15, label %16, label %44

16:                                               ; preds = %12
  call void @llvm.lifetime.start.p0(i64 8, ptr %7) #13
  %17 = load ptr, ptr %4, align 8
  %18 = load i64, ptr %6, align 8
  %19 = call ptr @qemu_plugin_tb_get_insn(ptr noundef %17, i64 noundef %18)
  store ptr %19, ptr %7, align 8
  call void @llvm.lifetime.start.p0(i64 8, ptr %8) #13
  %20 = load ptr, ptr %7, align 8
  %21 = call ptr @find_counter(ptr noundef %20)
  store ptr %21, ptr %8, align 8
  %22 = load ptr, ptr %8, align 8
  %23 = icmp ne ptr %22, null
  br i1 %23, label %24, label %40

24:                                               ; preds = %16
  %25 = load i8, ptr @do_inline, align 1, !range !10, !noundef !11
  %26 = trunc i8 %25 to i1
  br i1 %26, label %27, label %36

27:                                               ; preds = %24
  %28 = load ptr, ptr %7, align 8
  %29 = getelementptr inbounds nuw %struct.qemu_plugin_u64, ptr %9, i32 0, i32 0
  %30 = load ptr, ptr %8, align 8
  store ptr %30, ptr %29, align 8
  %31 = getelementptr inbounds nuw %struct.qemu_plugin_u64, ptr %9, i32 0, i32 1
  store i64 0, ptr %31, align 8
  %32 = getelementptr inbounds nuw { ptr, i64 }, ptr %9, i32 0, i32 0
  %33 = load ptr, ptr %32, align 8
  %34 = getelementptr inbounds nuw { ptr, i64 }, ptr %9, i32 0, i32 1
  %35 = load i64, ptr %34, align 8
  call void @qemu_plugin_register_vcpu_insn_exec_inline_per_vcpu(ptr noundef %28, i32 noundef 0, ptr %33, i64 %35, i64 noundef 1)
  br label %39

36:                                               ; preds = %24
  %37 = load ptr, ptr %7, align 8
  %38 = load ptr, ptr %8, align 8
  call void @qemu_plugin_register_vcpu_insn_exec_cb(ptr noundef %37, ptr noundef @vcpu_insn_exec_before, i32 noundef 0, ptr noundef %38)
  br label %39

39:                                               ; preds = %36, %27
  br label %40

40:                                               ; preds = %39, %16
  call void @llvm.lifetime.end.p0(i64 8, ptr %8) #13
  call void @llvm.lifetime.end.p0(i64 8, ptr %7) #13
  br label %41

41:                                               ; preds = %40
  %42 = load i64, ptr %6, align 8
  %43 = add i64 %42, 1
  store i64 %43, ptr %6, align 8
  br label %12, !llvm.loop !12

44:                                               ; preds = %12
  call void @llvm.lifetime.end.p0(i64 8, ptr %6) #13
  call void @llvm.lifetime.end.p0(i64 8, ptr %5) #13
  ret void
}