; Function Attrs: nounwind sspstrong uwtable
define internal void @vcpu_tb_trans(i64 %0, ptr noundef %1) #0 {
  %3 = alloca i32, align 4
  %4 = tail call i64 @qemu_plugin_tb_n_insns(ptr noundef %1) #8
  %.not16 = icmp eq i64 %4, 0
  br i1 %.not16, label %._crit_edge, label %.lr.ph

.lr.ph:                                           ; preds = %2, %54
  %.015 = phi i64 [ %55, %54 ], [ 0, %2 ]
  %5 = call ptr @qemu_plugin_tb_get_insn(ptr noundef %1, i64 noundef %.015) #8
  call void @llvm.lifetime.start.p0(i64 4, ptr nonnull %3) #8
  store i32 0, ptr %3, align 4
  %6 = call i64 @qemu_plugin_insn_data(ptr noundef %5, ptr noundef nonnull %3, i64 noundef 4) #8
  %7 = load i32, ptr @class_table_sz, align 4
  %8 = icmp sgt i32 %7, 0
  br i1 %8, label %.lr.ph.i, label %._crit_edge.thread.i

.lr.ph.i:                                         ; preds = %.lr.ph
  %9 = load ptr, ptr @class_table, align 8
  %10 = load i32, ptr %3, align 4
  %11 = add nsw i32 %7, -1
  %12 = zext nneg i32 %11 to i64
  %13 = mul nuw nsw i64 %12, 48
  %scevgep.i = getelementptr i8, ptr %9, i64 %13
  %wide.trip.count.i = zext nneg i32 %7 to i64
  br label %15

14:                                               ; preds = %15
  %indvars.iv.next.i = add nuw nsw i64 %indvars.iv.i, 1
  %exitcond.not.i = icmp eq i64 %indvars.iv.next.i, %wide.trip.count.i
  br i1 %exitcond.not.i, label %._crit_edge.i, label %15, !llvm.loop !8

15:                                               ; preds = %14, %.lr.ph.i
  %indvars.iv.i = phi i64 [ 0, %.lr.ph.i ], [ %indvars.iv.next.i, %14 ]
  %16 = getelementptr inbounds nuw %struct.InsnClassExecCount, ptr %9, i64 %indvars.iv.i
  %17 = getelementptr inbounds nuw i8, ptr %16, i64 16
  %18 = load i32, ptr %17, align 8
  %19 = and i32 %18, %10
  %20 = getelementptr inbounds nuw i8, ptr %16, i64 20
  %21 = load i32, ptr %20, align 4
  %22 = icmp eq i32 %19, %21
  br i1 %22, label %.thread.i, label %14

._crit_edge.i:                                    ; preds = %14
  %.not.i = icmp eq ptr %scevgep.i, null
  br i1 %.not.i, label %._crit_edge.thread.i, label %.thread.i, !prof !9

._crit_edge.thread.i:                             ; preds = %._crit_edge.i, %.lr.ph
  call void @g_assertion_message_expr(ptr noundef null, ptr noundef nonnull @.str.117, i32 noundef 276, ptr noundef nonnull @__func__.find_counter, ptr noundef nonnull @.str.118) #11
  unreachable

.thread.i:                                        ; preds = %15, %._crit_edge.i
  %.147.i = phi ptr [ %scevgep.i, %._crit_edge.i ], [ %16, %15 ]
  %23 = getelementptr inbounds nuw i8, ptr %.147.i, i64 24
  %24 = load i32, ptr %23, align 8
  switch i32 %24, label %48 [
    i32 2, label %find_counter.exit.thread
    i32 0, label %25
    i32 1, label %27
  ]

find_counter.exit.thread:                         ; preds = %.thread.i
  call void @llvm.lifetime.end.p0(i64 4, ptr nonnull %3) #8
  br label %54

25:                                               ; preds = %.thread.i
  %26 = getelementptr inbounds nuw i8, ptr %.147.i, i64 32
  br label %find_counter.exit

27:                                               ; preds = %.thread.i
  call void @g_mutex_lock(ptr noundef nonnull @lock) #8
  %28 = load ptr, ptr @insns, align 8
  %29 = load i32, ptr %3, align 4
  %30 = zext i32 %29 to i64
  %31 = inttoptr i64 %30 to ptr
  %32 = call ptr @g_hash_table_lookup(ptr noundef %28, ptr noundef %31) #8
  %.not44.i = icmp eq ptr %32, null
  br i1 %.not44.i, label %33, label %46

33:                                               ; preds = %27
  %34 = call noalias dereferenceable_or_null(40) ptr @g_malloc0(i64 noundef 40) #12
  %35 = load i32, ptr %3, align 4
  %36 = getelementptr inbounds nuw i8, ptr %34, i64 8
  store i32 %35, ptr %36, align 8
  %37 = call ptr @qemu_plugin_insn_disas(ptr noundef %5) #8
  store ptr %37, ptr %34, align 8
  %38 = getelementptr inbounds nuw i8, ptr %34, i64 32
  store ptr %.147.i, ptr %38, align 8
  %39 = call ptr @qemu_plugin_scoreboard_new(i64 noundef 8) #8
  %40 = getelementptr inbounds nuw i8, ptr %34, i64 16
  store ptr %39, ptr %40, align 8
  %.sroa.2.0..sroa_idx.i = getelementptr inbounds nuw i8, ptr %34, i64 24
  store i64 0, ptr %.sroa.2.0..sroa_idx.i, align 8
  %41 = load ptr, ptr @insns, align 8
  %42 = load i32, ptr %3, align 4
  %43 = zext i32 %42 to i64
  %44 = inttoptr i64 %43 to ptr
  %45 = call i32 @g_hash_table_insert(ptr noundef %41, ptr noundef %44, ptr noundef nonnull %34) #8
  br label %46

46:                                               ; preds = %33, %27
  %.041.i = phi ptr [ %32, %27 ], [ %34, %33 ]
  call void @g_mutex_unlock(ptr noundef nonnull @lock) #8
  %47 = getelementptr inbounds nuw i8, ptr %.041.i, i64 16
  br label %find_counter.exit

48:                                               ; preds = %.thread.i
  call void @g_assertion_message_expr(ptr noundef null, ptr noundef nonnull @.str.117, i32 noundef 307, ptr noundef nonnull @__func__.find_counter, ptr noundef null) #11
  unreachable

find_counter.exit:                                ; preds = %25, %46
  %.0.i.in = phi ptr [ %47, %46 ], [ %26, %25 ]
  %.0.i = load ptr, ptr %.0.i.in, align 8
  call void @llvm.lifetime.end.p0(i64 4, ptr nonnull %3) #8
  %.not = icmp eq ptr %.0.i, null
  br i1 %.not, label %54, label %49

49:                                               ; preds = %find_counter.exit
  %50 = load i8, ptr @do_inline, align 1, !range !10, !noundef !11
  %51 = trunc nuw i8 %50 to i1
  br i1 %51, label %52, label %53

52:                                               ; preds = %49
  call void @qemu_plugin_register_vcpu_insn_exec_inline_per_vcpu(ptr noundef %5, i32 noundef 0, ptr nonnull %.0.i, i64 0, i64 noundef 1) #8
  br label %54

53:                                               ; preds = %49
  call void @qemu_plugin_register_vcpu_insn_exec_cb(ptr noundef %5, ptr noundef nonnull @vcpu_insn_exec_before, i32 noundef 0, ptr noundef nonnull %.0.i) #8
  br label %54

54:                                               ; preds = %find_counter.exit.thread, %52, %53, %find_counter.exit
  %55 = add nuw i64 %.015, 1
  %exitcond.not = icmp eq i64 %55, %4
  br i1 %exitcond.not, label %._crit_edge, label %.lr.ph, !llvm.loop !12

._crit_edge:                                      ; preds = %54, %2
  ret void
}